target datalayout = "e-m:e-p270:32:32-p271:32:32-p272:64:64-i64:64-i128:128-f80:128-n8:16:32:64-S128"
target triple = "x86_64-pc-linux-gnu"

@fetch_property = internal global ptr null, align 8
@expected_fetch_result = internal global i32 1, align 4
@use_default_ctx = internal global i32 0, align 4
@.str.33 = private unnamed_addr constant [38 x i8] c"../openssl/test/evp_fetch_prov_test.c\00", align 1
@.str.40 = private unnamed_addr constant [3 x i8] c"md\00", align 1
@.str.55 = private unnamed_addr constant [18 x i8] c"EVP_MD_up_ref(md)\00", align 1

; Function Attrs: nounwind uwtable
define internal void @unload_providers(ptr noundef %0, ptr noundef %1) #0 {
  %3 = alloca ptr, align 8
  %4 = alloca ptr, align 8
  store ptr %0, ptr %3, align 8, !tbaa !19
  store ptr %1, ptr %4, align 8, !tbaa !21
  %5 = load ptr, ptr %4, align 8, !tbaa !21
  %6 = getelementptr inbounds ptr, ptr %5, i64 0
  %7 = load ptr, ptr %6, align 8, !tbaa !25
  %8 = icmp ne ptr %7, null
  br i1 %8, label %9, label %14

9:                                                ; preds = %2
  %10 = load ptr, ptr %4, align 8, !tbaa !21
  %11 = getelementptr inbounds ptr, ptr %10, i64 0
  %12 = load ptr, ptr %11, align 8, !tbaa !25
  %13 = call i32 @OSSL_PROVIDER_unload(ptr noundef %12)
  br label %14

14:                                               ; preds = %9, %2
  %15 = load ptr, ptr %4, align 8, !tbaa !21
  %16 = getelementptr inbounds ptr, ptr %15, i64 1
  %17 = load ptr, ptr %16, align 8, !tbaa !25
  %18 = icmp ne ptr %17, null
  br i1 %18, label %19, label %24

19:                                               ; preds = %14
  %20 = load ptr, ptr %4, align 8, !tbaa !21
  %21 = getelementptr inbounds ptr, ptr %20, i64 1
  %22 = load ptr, ptr %21, align 8, !tbaa !25
  %23 = call i32 @OSSL_PROVIDER_unload(ptr noundef %22)
  br label %24

24:                                               ; preds = %19, %14
  %25 = load ptr, ptr %3, align 8, !tbaa !19
  %26 = icmp ne ptr %25, null
  br i1 %26, label %27, label %36

27:                                               ; preds = %24
  %28 = load ptr, ptr %3, align 8, !tbaa !19
  %29 = load ptr, ptr %28, align 8, !tbaa !13
  %30 = icmp ne ptr %29, null
  br i1 %30, label %31, label %36

31:                                               ; preds = %27
  %32 = load ptr, ptr %3, align 8, !tbaa !19
  %33 = load ptr, ptr %32, align 8, !tbaa !13
  call void @OPENSSL_thread_stop_ex(ptr noundef %33)
  %34 = load ptr, ptr %3, align 8, !tbaa !19
  %35 = load ptr, ptr %34, align 8, !tbaa !13
  call void @OSSL_LIB_CTX_free(ptr noundef %35)
  br label %36

36:                                               ; preds = %31, %27, %24
  ret void
}

; Function Attrs: nounwind uwtable
define internal i32 @test_explicit_EVP_MD_fetch(ptr noundef %0) #0 {
  %2 = alloca ptr, align 8
  %3 = alloca ptr, align 8
  %4 = alloca ptr, align 8
  %5 = alloca [2 x ptr], align 16
  %6 = alloca i32, align 4
  store ptr %0, ptr %2, align 8, !tbaa !8
  call void @llvm.lifetime.start.p0(i64 8, ptr %3) #6
  store ptr null, ptr %3, align 8, !tbaa !13
  call void @llvm.lifetime.start.p0(i64 8, ptr %4) #6
  store ptr null, ptr %4, align 8, !tbaa !28
  call void @llvm.lifetime.start.p0(i64 16, ptr %5) #6
  call void @llvm.memset.p0.i64(ptr align 16 %5, i8 0, i64 16, i1 false)
  call void @llvm.lifetime.start.p0(i64 4, ptr %6) #6
  store i32 0, ptr %6, align 4, !tbaa !4
  %7 = load i32, ptr @use_default_ctx, align 4, !tbaa !4
  %8 = icmp eq i32 %7, 0
  br i1 %8, label %9, label %14

9:                                                ; preds = %1
  %10 = getelementptr inbounds [2 x ptr], ptr %5, i64 0, i64 0
  %11 = call i32 @load_providers(ptr noundef %3, ptr noundef %10)
  %12 = icmp ne i32 %11, 0
  br i1 %12, label %14, label %13

13:                                               ; preds = %9
  br label %43

14:                                               ; preds = %9, %1
  %15 = load ptr, ptr %3, align 8, !tbaa !13
  %16 = load ptr, ptr %2, align 8, !tbaa !8
  %17 = load ptr, ptr @fetch_property, align 8, !tbaa !8
  %18 = call ptr @EVP_MD_fetch(ptr noundef %15, ptr noundef %16, ptr noundef %17)
  store ptr %18, ptr %4, align 8, !tbaa !28
  %19 = load i32, ptr @expected_fetch_result, align 4, !tbaa !4
  %20 = icmp ne i32 %19, 0
  br i1 %20, label %21, label %36

21:                                               ; preds = %14
  %22 = load ptr, ptr %4, align 8, !tbaa !28
  %23 = call i32 @test_md(ptr noundef %22)
  %24 = icmp ne i32 %23, 0
  br i1 %24, label %26, label %25

25:                                               ; preds = %21
  br label %43

26:                                               ; preds = %21
  %27 = load ptr, ptr %4, align 8, !tbaa !28
  %28 = call i32 @EVP_MD_up_ref(ptr noundef %27)
  %29 = icmp ne i32 %28, 0
  %30 = zext i1 %29 to i32
  %31 = call i32 @test_true(ptr noundef @.str.33, i32 noundef 206, ptr noundef @.str.55, i32 noundef %30)
  %32 = icmp ne i32 %31, 0
  br i1 %32, label %34, label %33

33:                                               ; preds = %26
  br label %43

34:                                               ; preds = %26
  %35 = load ptr, ptr %4, align 8, !tbaa !28
  call void @EVP_MD_free(ptr noundef %35)
  br label %42

36:                                               ; preds = %14
  %37 = load ptr, ptr %4, align 8, !tbaa !28
  %38 = call i32 @test_ptr_null(ptr noundef @.str.33, i32 noundef 211, ptr noundef @.str.40, ptr noundef %37)
  %39 = icmp ne i32 %38, 0
  br i1 %39, label %41, label %40

40:                                               ; preds = %36
  br label %43

41:                                               ; preds = %36
  br label %42

42:                                               ; preds = %41, %34
  store i32 1, ptr %6, align 4, !tbaa !4
  br label %43

43:                                               ; preds = %42, %40, %33, %25, %13
  %44 = load ptr, ptr %4, align 8, !tbaa !28
  call void @EVP_MD_free(ptr noundef %44)
  %45 = getelementptr inbounds [2 x ptr], ptr %5, i64 0, i64 0
  call void @unload_providers(ptr noundef %3, ptr noundef %45)
  %46 = load i32, ptr %6, align 4, !tbaa !4
  call void @llvm.lifetime.end.p0(i64 4, ptr %6) #6
  call void @llvm.lifetime.end.p0(i64 16, ptr %5) #6
  call void @llvm.lifetime.end.p0(i64 8, ptr %4) #6
  call void @llvm.lifetime.end.p0(i64 8, ptr %3) #6
  ret i32 %46
}